target datalayout = "e-m:e-p270:32:32-p271:32:32-p272:64:64-i64:64-i128:128-f80:128-n8:16:32:64-S128"
target triple = "x86_64-pc-linux-gnu"

%struct.GlobalContext = type { %struct.HTable, ptr, ptr, ptr, ptr, ptr, ptr, ptr, ptr, i8, i32, i32, i32, ptr, ptr, %struct.HTable, %struct.HTable, %struct.Module_, %struct.DeclTable, %struct.DeclTable, %struct.Path_, ptr, ptr, ptr, ptr, ptr, ptr, ptr, [65536 x ptr], ptr, ptr, ptr }
%struct.HTable = type { i32, ptr }
%struct.Module_ = type { ptr, ptr, ptr, i16, i32, ptr, %struct.HTable, ptr, ptr, ptr, ptr, ptr, ptr, ptr, ptr, ptr }
%struct.DeclTable = type { i32, i32, i32, ptr }
%struct.Path_ = type { %union.SourceSpan, ptr, i32 }
%union.SourceSpan = type { i64 }

@global_context = external global %struct.GlobalContext, align 8
@.str = private unnamed_addr constant [29 x i8] c"Declaration stack exhausted.\00", align 1

; Function Attrs: nounwind uwtable
define dso_local void @sema_decl_stack_push(ptr noundef %0) #0 {
  %2 = alloca ptr, align 8
  %3 = alloca ptr, align 8
  store ptr %0, ptr %2, align 8
  %4 = load ptr, ptr getelementptr inbounds (%struct.GlobalContext, ptr @global_context, i32 0, i32 30), align 8
  store ptr %4, ptr %3, align 8
  %5 = load ptr, ptr %3, align 8
  %6 = icmp eq ptr %5, getelementptr inbounds (%struct.GlobalContext, ptr @global_context, i32 0, i32 28, i64 65536)
  br i1 %6, label %7, label %8

7:                                                ; preds = %1
  call void (ptr, ...) @error_exit(ptr noundef @.str) #6
  unreachable

8:                                                ; preds = %1
  %9 = load ptr, ptr %2, align 8
  %10 = load ptr, ptr %3, align 8
  %11 = getelementptr inbounds ptr, ptr %10, i32 1
  store ptr %11, ptr %3, align 8
  store ptr %9, ptr %10, align 8
  %12 = load ptr, ptr %3, align 8
  store ptr %12, ptr getelementptr inbounds (%struct.GlobalContext, ptr @global_context, i32 0, i32 30), align 8
  ret void
}