; Function Attrs: nounwind uwtable
define dso_local void @sema_decl_stack_push(ptr noundef %0) local_unnamed_addr #2 {
  %2 = load ptr, ptr getelementptr inbounds (%struct.GlobalContext, ptr @global_context, i64 0, i32 30), align 8
  %3 = icmp eq ptr %2, getelementptr inbounds (%struct.GlobalContext, ptr @global_context, i64 0, i32 29)
  br i1 %3, label %4, label %5

4:                                                ; preds = %1
  tail call void (ptr, ...) @error_exit(ptr noundef nonnull @.str) #9
  unreachable

5:                                                ; preds = %1
  %6 = getelementptr inbounds i8, ptr %2, i64 8
  store ptr %0, ptr %2, align 8
  store ptr %6, ptr getelementptr inbounds (%struct.GlobalContext, ptr @global_context, i64 0, i32 30), align 8
  ret void
}